Certificate:
    Data:
        Version: 3 (0x2)
        Serial Number:
            96:3f:cb:82:5f:0c:cf:97:b0:19:eb:fd:8a:18:f5:bd
        Signature Algorithm: sha256WithRSAEncryption
        Issuer: CN=ExamPizza
        Validity
            Not Before: Dec 16 16:23:48 2023 GMT
            Not After : Mar 20 16:23:48 2026 GMT
        Subject: CN=pc1
        Subject Public Key Info:
            Public Key Algorithm: rsaEncryption
                Public-Key: (2048 bit)
                Modulus:
                    00:b7:dc:85:fc:79:87:c2:17:59:35:b0:d1:c8:f8:
                    ea:0d:ad:86:7c:5a:72:8e:14:45:21:9d:0f:b3:a8:
                    32:00:1d:12:93:82:63:df:91:c4:c6:17:12:35:2d:
                    7a:fe:2c:ab:eb:49:3f:ef:ba:13:ef:04:3b:31:00:
                    8c:1d:7e:53:3e:e1:f8:f0:82:c9:70:a5:a8:1a:49:
                    a9:d5:21:fe:1a:8a:ef:68:c0:09:14:1d:2c:86:ee:
                    c8:c0:c7:26:d2:8b:b5:86:d4:bc:e8:3c:f4:05:b0:
                    ad:a0:6b:2a:9f:03:02:15:97:e8:eb:97:0d:76:e8:
                    1e:78:79:5b:02:b7:db:ab:67:55:fb:74:be:54:92:
                    01:23:7d:9a:a4:5c:a9:86:fd:f7:ab:14:a9:5f:8e:
                    73:01:0a:9a:7b:0c:5d:27:f3:87:00:60:e2:70:13:
                    98:cc:0a:32:1d:c6:f6:c2:97:30:cf:65:06:33:9d:
                    69:5e:a8:e2:14:1e:12:1f:76:72:d0:3a:e7:3c:fe:
                    12:4f:ce:e8:bd:7b:55:dc:7c:f8:ff:9d:5d:ff:ca:
                    36:b7:a8:3b:cc:79:1c:e7:73:ac:8e:69:cc:ba:5d:
                    05:86:dd:f1:55:0b:1f:4f:39:16:6e:01:0e:75:98:
                    0f:b7:b3:c6:f8:f7:b4:9f:14:a4:05:16:32:f8:d5:
                    77:91
                Exponent: 65537 (0x10001)
        X509v3 extensions:
            X509v3 Basic Constraints: 
                CA:FALSE
            X509v3 Subject Key Identifier: 
                C6:8D:91:E5:43:0A:EF:27:A5:E9:FC:49:B8:4D:9C:ED:2D:75:9B:44
            X509v3 Authority Key Identifier: 
                keyid:85:51:84:A7:37:DF:50:EA:1A:CE:B9:44:CE:4B:C3:11:A8:5C:7D:2A
                DirName:/CN=ExamPizza
                serial:35:C0:F4:87:EE:3D:09:30:A5:C1:34:E9:13:D2:62:F4:52:E0:48:A2
            X509v3 Extended Key Usage: 
                TLS Web Client Authentication
            X509v3 Key Usage: 
                Digital Signature
    Signature Algorithm: sha256WithRSAEncryption
    Signature Value:
        05:33:40:56:cf:f0:a3:04:52:e1:df:18:d9:69:e0:23:95:46:
        cb:b6:fa:f1:7f:59:b7:e5:d2:cf:71:24:6e:9b:cd:a6:cd:39:
        bf:d0:7a:8d:1e:75:a0:3a:38:6a:7b:09:97:d0:ba:31:52:be:
        5a:32:36:92:a6:08:78:12:a7:bf:89:7f:16:1a:d1:82:22:52:
        52:d6:18:71:bb:cd:97:16:5b:55:c6:97:f6:80:2d:4a:76:13:
        28:4f:2f:47:a7:ec:f8:30:0f:6c:79:67:e7:e8:e6:74:f9:2c:
        05:1d:af:3d:53:0e:ef:5f:aa:e4:3a:64:8f:9a:05:67:d4:17:
        38:16:59:d9:c1:cd:39:01:d5:a3:31:38:56:07:54:fa:ed:46:
        d9:04:5a:99:3e:f6:f5:2d:3b:36:54:9d:1c:fd:d7:ad:61:5b:
        2f:01:3f:f5:bc:65:ed:e1:cc:8b:90:89:b5:70:86:ee:e0:d0:
        96:b8:70:23:31:44:b7:36:8a:98:4d:be:55:bd:0f:03:45:43:
        f0:8e:c3:6a:d6:2b:bf:e9:5f:b6:21:5c:dc:a4:15:46:7a:c0:
        ce:89:35:88:eb:91:e5:35:4a:a0:7a:75:27:b5:cd:70:b4:63:
        35:0f:22:14:ae:99:75:1d:a6:17:6f:51:ad:24:1f:fa:13:a6:
        6d:f3:22:d5
-----BEGIN CERTIFICATE-----
MIIDTjCCAjagAwIBAgIRAJY/y4JfDM+XsBnr/YoY9b0wDQYJKoZIhvcNAQELBQAw
FDESMBAGA1UEAwwJRXhhbVBpenphMB4XDTIzMTIxNjE2MjM0OFoXDTI2MDMyMDE2
MjM0OFowDjEMMAoGA1UEAwwDcGMxMIIBIjANBgkqhkiG9w0BAQEFAAOCAQ8AMIIB
CgKCAQEAt9yF/HmHwhdZNbDRyPjqDa2GfFpyjhRFIZ0Ps6gyAB0Sk4Jj35HExhcS
NS16/iyr60k/77oT7wQ7MQCMHX5TPuH48ILJcKWoGkmp1SH+GorvaMAJFB0shu7I
wMcm0ou1htS86Dz0BbCtoGsqnwMCFZfo65cNdugeeHlbArfbq2dV+3S+VJIBI32a
pFyphv33qxSpX45zAQqaewxdJ/OHAGDicBOYzAoyHcb2wpcwz2UGM51pXqjiFB4S
H3Zy0DrnPP4ST87ovXtV3Hz4/51d/8o2t6g7zHkc53OsjmnMul0Fht3xVQsfTzkW
bgEOdZgPt7PG+Pe0nxSkBRYy+NV3kQIDAQABo4GgMIGdMAkGA1UdEwQCMAAwHQYD
VR0OBBYEFMaNkeVDCu8npen8SbhNnO0tdZtEME8GA1UdIwRIMEaAFIVRhKc331Dq
Gs65RM5LwxGoXH0qoRikFjAUMRIwEAYDVQQDDAlFeGFtUGl6emGCFDXA9IfuPQkw
pcE06RPSYvRS4EiiMBMGA1UdJQQMMAoGCCsGAQUFBwMCMAsGA1UdDwQEAwIHgDAN
BgkqhkiG9w0BAQsFAAOCAQEABTNAVs/wowRS4d8Y2WngI5VGy7b68X9Zt+XSz3Ek
bpvNps05v9B6jR51oDo4ansJl9C6MVK+WjI2kqYIeBKnv4l/FhrRgiJSUtYYcbvN
lxZbVcaX9oAtSnYTKE8vR6fs+DAPbHln5+jmdPksBR2vPVMO71+q5Dpkj5oFZ9QX
OBZZ2cHNOQHVozE4VgdU+u1G2QRamT729S07NlSdHP3XrWFbLwE/9bxl7eHMi5CJ
tXCG7uDQlrhwIzFEtzaKmE2+Vb0PA0VD8I7DatYrv+lftiFc3KQVRnrAzok1iOuR
5TVKoHp1J7XNcLRjNQ8iFK6ZdR2mF29RrSQf+hOmbfMi1Q==
-----END CERTIFICATE-----
